; Function Attrs: mustprogress uwtable
define internal void @"_ZNSt17_Function_handlerIFvRK9DfgVertexEZL29dumpDotUpstreamConeFromVertexRSoS2_E3$_1E9_M_invokeERKSt9_Any_dataS2_"(ptr nocapture noundef nonnull readonly align 8 dereferenceable(16) %0, ptr noundef nonnull align 8 dereferenceable(72) %1) #3 align 2 {
  %.val = load ptr, ptr %0, align 8
  %3 = getelementptr inbounds i8, ptr %1, i64 56
  %.sroa.0.0.copyload.i.i.i.i.i.i.i = load i16, ptr %3, align 8
  %.not.i.i.i = icmp eq i16 %.sroa.0.0.copyload.i.i.i.i.i.i.i, 153
  br i1 %.not.i.i.i, label %4, label %"_ZSt10__invoke_rIvRZL29dumpDotUpstreamConeFromVertexRSoRK9DfgVertexE3$_1JS3_EENSt9enable_ifIX16is_invocable_r_vIT_T0_DpT1_EES7_E4typeEOS8_DpOS9_.exit"

4:                                                ; preds = %2
  %5 = getelementptr inbounds i8, ptr %1, i64 96
  %6 = load i8, ptr %5, align 8
  %7 = and i8 %6, 1
  %.not.i.i.i.i = icmp eq i8 %7, 0
  br i1 %.not.i.i.i.i, label %8, label %_ZNK12DfgVertexVar15hasNonLocalRefsEv.exit.thread.i.i.i

8:                                                ; preds = %4
  %9 = getelementptr inbounds i8, ptr %1, i64 97
  %10 = load i8, ptr %9, align 1
  %11 = and i8 %10, 1
  %.not1.i.i.i.i = icmp eq i8 %11, 0
  br i1 %.not1.i.i.i.i, label %_ZNK12DfgVertexVar15hasNonLocalRefsEv.exit.i.i.i, label %_ZNK12DfgVertexVar15hasNonLocalRefsEv.exit.thread.i.i.i

_ZNK12DfgVertexVar15hasNonLocalRefsEv.exit.i.i.i: ; preds = %8
  %12 = getelementptr inbounds i8, ptr %1, i64 98
  %13 = load i8, ptr %12, align 2
  %14 = and i8 %13, 1
  %.not1.i.i.i = icmp eq i8 %14, 0
  br i1 %.not1.i.i.i, label %"_ZSt10__invoke_rIvRZL29dumpDotUpstreamConeFromVertexRSoRK9DfgVertexE3$_1JS3_EENSt9enable_ifIX16is_invocable_r_vIT_T0_DpT1_EES7_E4typeEOS8_DpOS9_.exit", label %_ZNK12DfgVertexVar15hasNonLocalRefsEv.exit.thread.i.i.i

_ZNK12DfgVertexVar15hasNonLocalRefsEv.exit.thread.i.i.i: ; preds = %_ZNK12DfgVertexVar15hasNonLocalRefsEv.exit.i.i.i, %8, %4
  tail call fastcc void @_ZL27dumpDotVertexAndSourceEdgesRSoRK9DfgVertex(ptr noundef nonnull align 8 dereferenceable(8) %.val, ptr noundef nonnull align 8 dereferenceable(72) %1)
  br label %"_ZSt10__invoke_rIvRZL29dumpDotUpstreamConeFromVertexRSoRK9DfgVertexE3$_1JS3_EENSt9enable_ifIX16is_invocable_r_vIT_T0_DpT1_EES7_E4typeEOS8_DpOS9_.exit"

"_ZSt10__invoke_rIvRZL29dumpDotUpstreamConeFromVertexRSoRK9DfgVertexE3$_1JS3_EENSt9enable_ifIX16is_invocable_r_vIT_T0_DpT1_EES7_E4typeEOS8_DpOS9_.exit": ; preds = %2, %_ZNK12DfgVertexVar15hasNonLocalRefsEv.exit.i.i.i, %_ZNK12DfgVertexVar15hasNonLocalRefsEv.exit.thread.i.i.i
  ret void
}